target datalayout = "e-m:e-p270:32:32-p271:32:32-p272:64:64-i64:64-i128:128-f80:128-n8:16:32:64-S128"
target triple = "x86_64-pc-linux-gnu"

%struct.CVodeMemRec = type { ptr, double, ptr, ptr, i32, i32, double, double, ptr, i32, i32, ptr, ptr, i32, i32, ptr, i32, i32, double, double, ptr, i32, i32, i32, i32, ptr, ptr, ptr, i32, i32, ptr, ptr, ptr, i32, double, i32, i32, double, ptr, ptr, ptr, i32, ptr, ptr, i32, i32, i32, double, ptr, ptr, ptr, [13 x ptr], ptr, ptr, ptr, ptr, ptr, ptr, ptr, ptr, ptr, [13 x ptr], ptr, ptr, ptr, ptr, [13 x ptr], ptr, ptr, ptr, ptr, ptr, i32, [13 x ptr], ptr, ptr, ptr, ptr, ptr, i32, i32, double, i32, i32, i32, i32, i32, double, double, double, double, double, double, double, double, [14 x double], [6 x double], [13 x double], double, double, double, double, double, double, double, double, i32, double, double, i32, double, double, ptr, i32, i64, i32, i32, i32, double, double, double, double, double, double, double, double, double, double, double, double, i64, i32, i64, i64, i64, i64, i64, i64, i64, i64, i64, ptr, i64, i64, ptr, i64, i64, ptr, i64, i64, i64, i64, i64, i64, i32, double, double, double, i64, i64, i64, i64, i64, i64, ptr, i32, ptr, i32, ptr, i32, ptr, i32, i32, i64, i32, ptr, i32, ptr, ptr, ptr, ptr, ptr, ptr, i32, i32, ptr, ptr, ptr, ptr, ptr, i64, double, i32, i32, i64, double, double, double, i32, i32, double, i32, i32, i32, i32, i32, i32, i32, i32, i32, i32, i32, i32, i32, i32, i32, i32, ptr, i64, i32, [6 x [4 x double]], i32, i64, ptr, i32, ptr, ptr, double, double, double, ptr, ptr, ptr, double, double, i32, i32, i64, ptr, i32, ptr, i32, i32, [13 x double], ptr, ptr, ptr, i32, ptr, i32 }
%struct.CVadjMemRec = type { double, double, i32, i32, double, i32, double, ptr, i32, ptr, i32, ptr, i32, ptr, i64, i64, ptr, i64, i32, ptr, ptr, ptr, ptr, i32, i32, i32, i32, [13 x ptr], [13 x ptr], [13 x double], ptr, ptr }
%struct.CVodeBMemRec = type { i32, double, ptr, i32, i32, ptr, ptr, ptr, ptr, ptr, ptr, ptr, ptr, ptr, double, ptr, ptr }

@.str = private unnamed_addr constant [115 x i8] c"generated/home/dtcxzyw/WorkSpace/Projects/compilers/llvm-opt-benchmark/bench/sundials/sundials/src/cvodes/cvodea.c\00", align 1
@.str.1 = private unnamed_addr constant [26 x i8] c"cvode_mem = NULL illegal.\00", align 1
@.str.4 = private unnamed_addr constant [25 x i8] c"A memory request failed.\00", align 1
@.str.5 = private unnamed_addr constant [55 x i8] c"Illegal attempt to call before calling CVodeAdjMalloc.\00", align 1
@__func__.CVodeCreateB = private unnamed_addr constant [13 x i8] c"CVodeCreateB\00", align 1

; Function Attrs: nounwind uwtable
define i32 @CVodeCreateB(ptr noundef %0, i32 noundef %1, ptr noundef %2) #0 {
  %4 = alloca i32, align 4
  %5 = alloca ptr, align 8
  %6 = alloca i32, align 4
  %7 = alloca ptr, align 8
  %8 = alloca ptr, align 8
  %9 = alloca ptr, align 8
  %10 = alloca ptr, align 8
  %11 = alloca ptr, align 8
  %12 = alloca i32, align 4
  store ptr %0, ptr %5, align 8, !tbaa !3
  store i32 %1, ptr %6, align 4, !tbaa !9
  store ptr %2, ptr %7, align 8, !tbaa !111
  call void @llvm.lifetime.start.p0(i64 8, ptr %8) #6
  call void @llvm.lifetime.start.p0(i64 8, ptr %9) #6
  call void @llvm.lifetime.start.p0(i64 8, ptr %10) #6
  call void @llvm.lifetime.start.p0(i64 8, ptr %11) #6
  %13 = load ptr, ptr %5, align 8, !tbaa !3
  %14 = icmp eq ptr %13, null
  br i1 %14, label %15, label %16

15:                                               ; preds = %3
  call void (ptr, i32, i32, ptr, ptr, ptr, ...) @cvProcessError(ptr noundef null, i32 noundef -21, i32 noundef 676, ptr noundef @__func__.CVodeCreateB, ptr noundef @.str, ptr noundef @.str.1)
  store i32 -21, ptr %4, align 4
  store i32 1, ptr %12, align 4
  br label %97

16:                                               ; preds = %3
  %17 = load ptr, ptr %5, align 8, !tbaa !3
  store ptr %17, ptr %8, align 8, !tbaa !11
  %18 = load ptr, ptr %8, align 8, !tbaa !11
  %19 = getelementptr inbounds nuw %struct.CVodeMemRec, ptr %18, i32 0, i32 249
  %20 = load i32, ptr %19, align 8, !tbaa !54
  %21 = icmp eq i32 %20, 0
  br i1 %21, label %22, label %24

22:                                               ; preds = %16
  %23 = load ptr, ptr %8, align 8, !tbaa !11
  call void (ptr, i32, i32, ptr, ptr, ptr, ...) @cvProcessError(ptr noundef %23, i32 noundef -101, i32 noundef 684, ptr noundef @__func__.CVodeCreateB, ptr noundef @.str, ptr noundef @.str.5)
  store i32 -101, ptr %4, align 4
  store i32 1, ptr %12, align 4
  br label %97

24:                                               ; preds = %16
  %25 = load ptr, ptr %8, align 8, !tbaa !11
  %26 = getelementptr inbounds nuw %struct.CVodeMemRec, ptr %25, i32 0, i32 248
  %27 = load ptr, ptr %26, align 8, !tbaa !15
  store ptr %27, ptr %9, align 8, !tbaa !13
  store ptr null, ptr %10, align 8, !tbaa !103
  %28 = call noalias ptr @malloc(i64 noundef 128) #7
  store ptr %28, ptr %10, align 8, !tbaa !103
  %29 = load ptr, ptr %10, align 8, !tbaa !103
  %30 = icmp eq ptr %29, null
  br i1 %30, label %31, label %33

31:                                               ; preds = %24
  %32 = load ptr, ptr %8, align 8, !tbaa !11
  call void (ptr, i32, i32, ptr, ptr, ptr, ...) @cvProcessError(ptr noundef %32, i32 noundef -20, i32 noundef 695, ptr noundef @__func__.CVodeCreateB, ptr noundef @.str, ptr noundef @.str.4)
  store i32 -20, ptr %4, align 4
  store i32 1, ptr %12, align 4
  br label %97

33:                                               ; preds = %24
  %34 = load i32, ptr %6, align 4, !tbaa !9
  %35 = load ptr, ptr %8, align 8, !tbaa !11
  %36 = getelementptr inbounds nuw %struct.CVodeMemRec, ptr %35, i32 0, i32 0
  %37 = load ptr, ptr %36, align 8, !tbaa !153
  %38 = call ptr @CVodeCreate(i32 noundef %34, ptr noundef %37)
  store ptr %38, ptr %11, align 8, !tbaa !3
  %39 = load ptr, ptr %11, align 8, !tbaa !3
  %40 = icmp eq ptr %39, null
  br i1 %40, label %41, label %43

41:                                               ; preds = %33
  %42 = load ptr, ptr %8, align 8, !tbaa !11
  call void (ptr, i32, i32, ptr, ptr, ptr, ...) @cvProcessError(ptr noundef %42, i32 noundef -20, i32 noundef 705, ptr noundef @__func__.CVodeCreateB, ptr noundef @.str, ptr noundef @.str.4)
  store i32 -20, ptr %4, align 4
  store i32 1, ptr %12, align 4
  br label %97

43:                                               ; preds = %33
  %44 = load ptr, ptr %11, align 8, !tbaa !3
  %45 = load ptr, ptr %5, align 8, !tbaa !3
  %46 = call i32 @CVodeSetUserData(ptr noundef %44, ptr noundef %45)
  %47 = load ptr, ptr %11, align 8, !tbaa !3
  %48 = call i32 @CVodeSetMaxHnilWarns(ptr noundef %47, i32 noundef -1)
  %49 = load ptr, ptr %9, align 8, !tbaa !13
  %50 = getelementptr inbounds nuw %struct.CVadjMemRec, ptr %49, i32 0, i32 8
  %51 = load i32, ptr %50, align 8, !tbaa !48
  %52 = load ptr, ptr %10, align 8, !tbaa !103
  %53 = getelementptr inbounds nuw %struct.CVodeBMemRec, ptr %52, i32 0, i32 0
  store i32 %51, ptr %53, align 8, !tbaa !154
  %54 = load ptr, ptr %11, align 8, !tbaa !3
  %55 = load ptr, ptr %10, align 8, !tbaa !103
  %56 = getelementptr inbounds nuw %struct.CVodeBMemRec, ptr %55, i32 0, i32 2
  store ptr %54, ptr %56, align 8, !tbaa !106
  %57 = load ptr, ptr %10, align 8, !tbaa !103
  %58 = getelementptr inbounds nuw %struct.CVodeBMemRec, ptr %57, i32 0, i32 5
  store ptr null, ptr %58, align 8, !tbaa !155
  %59 = load ptr, ptr %10, align 8, !tbaa !103
  %60 = getelementptr inbounds nuw %struct.CVodeBMemRec, ptr %59, i32 0, i32 6
  store ptr null, ptr %60, align 8, !tbaa !156
  %61 = load ptr, ptr %10, align 8, !tbaa !103
  %62 = getelementptr inbounds nuw %struct.CVodeBMemRec, ptr %61, i32 0, i32 7
  store ptr null, ptr %62, align 8, !tbaa !157
  %63 = load ptr, ptr %10, align 8, !tbaa !103
  %64 = getelementptr inbounds nuw %struct.CVodeBMemRec, ptr %63, i32 0, i32 8
  store ptr null, ptr %64, align 8, !tbaa !158
  %65 = load ptr, ptr %10, align 8, !tbaa !103
  %66 = getelementptr inbounds nuw %struct.CVodeBMemRec, ptr %65, i32 0, i32 9
  store ptr null, ptr %66, align 8, !tbaa !159
  %67 = load ptr, ptr %10, align 8, !tbaa !103
  %68 = getelementptr inbounds nuw %struct.CVodeBMemRec, ptr %67, i32 0, i32 10
  store ptr null, ptr %68, align 8, !tbaa !160
  %69 = load ptr, ptr %10, align 8, !tbaa !103
  %70 = getelementptr inbounds nuw %struct.CVodeBMemRec, ptr %69, i32 0, i32 11
  store ptr null, ptr %70, align 8, !tbaa !107
  %71 = load ptr, ptr %10, align 8, !tbaa !103
  %72 = getelementptr inbounds nuw %struct.CVodeBMemRec, ptr %71, i32 0, i32 12
  store ptr null, ptr %72, align 8, !tbaa !161
  %73 = load ptr, ptr %10, align 8, !tbaa !103
  %74 = getelementptr inbounds nuw %struct.CVodeBMemRec, ptr %73, i32 0, i32 13
  store ptr null, ptr %74, align 8, !tbaa !108
  %75 = load ptr, ptr %10, align 8, !tbaa !103
  %76 = getelementptr inbounds nuw %struct.CVodeBMemRec, ptr %75, i32 0, i32 15
  store ptr null, ptr %76, align 8, !tbaa !109
  %77 = load ptr, ptr %10, align 8, !tbaa !103
  %78 = getelementptr inbounds nuw %struct.CVodeBMemRec, ptr %77, i32 0, i32 3
  store i32 0, ptr %78, align 8, !tbaa !162
  %79 = load ptr, ptr %10, align 8, !tbaa !103
  %80 = getelementptr inbounds nuw %struct.CVodeBMemRec, ptr %79, i32 0, i32 4
  store i32 0, ptr %80, align 4, !tbaa !163
  %81 = load ptr, ptr %9, align 8, !tbaa !13
  %82 = getelementptr inbounds nuw %struct.CVadjMemRec, ptr %81, i32 0, i32 7
  %83 = load ptr, ptr %82, align 8, !tbaa !46
  %84 = load ptr, ptr %10, align 8, !tbaa !103
  %85 = getelementptr inbounds nuw %struct.CVodeBMemRec, ptr %84, i32 0, i32 16
  store ptr %83, ptr %85, align 8, !tbaa !104
  %86 = load ptr, ptr %10, align 8, !tbaa !103
  %87 = load ptr, ptr %9, align 8, !tbaa !13
  %88 = getelementptr inbounds nuw %struct.CVadjMemRec, ptr %87, i32 0, i32 7
  store ptr %86, ptr %88, align 8, !tbaa !46
  %89 = load ptr, ptr %9, align 8, !tbaa !13
  %90 = getelementptr inbounds nuw %struct.CVadjMemRec, ptr %89, i32 0, i32 8
  %91 = load i32, ptr %90, align 8, !tbaa !48
  %92 = load ptr, ptr %7, align 8, !tbaa !111
  store i32 %91, ptr %92, align 4, !tbaa !9
  %93 = load ptr, ptr %9, align 8, !tbaa !13
  %94 = getelementptr inbounds nuw %struct.CVadjMemRec, ptr %93, i32 0, i32 8
  %95 = load i32, ptr %94, align 8, !tbaa !48
  %96 = add nsw i32 %95, 1
  store i32 %96, ptr %94, align 8, !tbaa !48
  store i32 0, ptr %4, align 4
  store i32 1, ptr %12, align 4
  br label %97

97:                                               ; preds = %43, %41, %31, %22, %15
  call void @llvm.lifetime.end.p0(i64 8, ptr %11) #6
  call void @llvm.lifetime.end.p0(i64 8, ptr %10) #6
  call void @llvm.lifetime.end.p0(i64 8, ptr %9) #6
  call void @llvm.lifetime.end.p0(i64 8, ptr %8) #6
  %98 = load i32, ptr %4, align 4
  ret i32 %98
}