; Function Attrs: nounwind uwtable
define range(i32 -101, 1) i32 @CVodeCreateB(ptr noundef %0, i32 noundef %1, ptr noundef writeonly captures(none) %2) local_unnamed_addr #0 {
  %4 = icmp eq ptr %0, null
  br i1 %4, label %5, label %6

5:                                                ; preds = %3
  tail call void (ptr, i32, i32, ptr, ptr, ptr, ...) @cvProcessError(ptr noundef null, i32 noundef -21, i32 noundef 676, ptr noundef nonnull @__func__.CVodeCreateB, ptr noundef nonnull @.str, ptr noundef nonnull @.str.1) #9
  br label %34

6:                                                ; preds = %3
  %7 = getelementptr inbounds nuw i8, ptr %0, i64 2680
  %8 = load i32, ptr %7, align 8, !tbaa !48
  %9 = icmp eq i32 %8, 0
  br i1 %9, label %10, label %11

10:                                               ; preds = %6
  tail call void (ptr, i32, i32, ptr, ptr, ptr, ...) @cvProcessError(ptr noundef nonnull %0, i32 noundef -101, i32 noundef 684, ptr noundef nonnull @__func__.CVodeCreateB, ptr noundef nonnull @.str, ptr noundef nonnull @.str.5) #9
  br label %34

11:                                               ; preds = %6
  %12 = getelementptr inbounds nuw i8, ptr %0, i64 2672
  %13 = load ptr, ptr %12, align 8, !tbaa !3
  %14 = tail call noalias dereferenceable_or_null(128) ptr @malloc(i64 noundef 128) #10
  %15 = icmp eq ptr %14, null
  br i1 %15, label %16, label %17

16:                                               ; preds = %11
  tail call void (ptr, i32, i32, ptr, ptr, ptr, ...) @cvProcessError(ptr noundef nonnull %0, i32 noundef -20, i32 noundef 695, ptr noundef nonnull @__func__.CVodeCreateB, ptr noundef nonnull @.str, ptr noundef nonnull @.str.4) #9
  br label %34

17:                                               ; preds = %11
  %18 = load ptr, ptr %0, align 8, !tbaa !140
  %19 = tail call ptr @CVodeCreate(i32 noundef %1, ptr noundef %18) #9
  %20 = icmp eq ptr %19, null
  br i1 %20, label %21, label %22

21:                                               ; preds = %17
  tail call void (ptr, i32, i32, ptr, ptr, ptr, ...) @cvProcessError(ptr noundef nonnull %0, i32 noundef -20, i32 noundef 705, ptr noundef nonnull @__func__.CVodeCreateB, ptr noundef nonnull @.str, ptr noundef nonnull @.str.4) #9
  br label %34

22:                                               ; preds = %17
  %23 = tail call i32 @CVodeSetUserData(ptr noundef nonnull %19, ptr noundef nonnull %0) #9
  %24 = tail call i32 @CVodeSetMaxHnilWarns(ptr noundef nonnull %19, i32 noundef -1) #9
  %25 = getelementptr inbounds nuw i8, ptr %13, i64 56
  %26 = load i32, ptr %25, align 8, !tbaa !42
  store i32 %26, ptr %14, align 8, !tbaa !141
  %27 = getelementptr inbounds nuw i8, ptr %14, i64 16
  store ptr %19, ptr %27, align 8, !tbaa !94
  %28 = getelementptr inbounds nuw i8, ptr %14, i64 112
  store ptr null, ptr %28, align 8, !tbaa !98
  %29 = getelementptr inbounds nuw i8, ptr %14, i64 24
  %30 = getelementptr inbounds nuw i8, ptr %13, i64 48
  tail call void @llvm.memset.p0.i64(ptr noundef nonnull align 8 dereferenceable(80) %29, i8 0, i64 80, i1 false)
  %31 = load ptr, ptr %30, align 8, !tbaa !40
  %32 = getelementptr inbounds nuw i8, ptr %14, i64 120
  store ptr %31, ptr %32, align 8, !tbaa !90
  store ptr %14, ptr %30, align 8, !tbaa !40
  store i32 %26, ptr %2, align 4, !tbaa !112
  %33 = add nsw i32 %26, 1
  store i32 %33, ptr %25, align 8, !tbaa !42
  br label %34

34:                                               ; preds = %22, %21, %16, %10, %5
  %.0 = phi i32 [ -21, %5 ], [ -101, %10 ], [ -20, %16 ], [ -20, %21 ], [ 0, %22 ]
  ret i32 %.0
}